target datalayout = "e-m:e-p270:32:32-p271:32:32-p272:64:64-i64:64-i128:128-f80:128-n8:16:32:64-S128"
target triple = "x86_64-pc-linux-gnu"

; Function Attrs: inlinehint nounwind sspstrong willreturn memory(none) uwtable
define internal i64 @rbimpl_fix2long_by_idiv(i64 noundef %0) #8 {
  %2 = alloca i64, align 8
  %3 = alloca i64, align 8
  %4 = alloca i64, align 8
  %5 = alloca i64, align 8
  store i64 %0, ptr %2, align 8, !tbaa !26
  call void @llvm.lifetime.start.p0(i64 8, ptr %3) #24
  %6 = load i64, ptr %2, align 8, !tbaa !26
  %7 = sub i64 %6, 1
  store i64 %7, ptr %3, align 8, !tbaa !26
  call void @llvm.lifetime.start.p0(i64 8, ptr %4) #24
  %8 = load i64, ptr %3, align 8, !tbaa !26
  %9 = sdiv i64 %8, 2
  store i64 %9, ptr %4, align 8, !tbaa !26
  call void @llvm.lifetime.start.p0(i64 8, ptr %5) #24
  %10 = load i64, ptr %4, align 8, !tbaa !26
  store i64 %10, ptr %5, align 8, !tbaa !26
  %11 = load i64, ptr %5, align 8, !tbaa !26
  call void @llvm.lifetime.end.p0(i64 8, ptr %5) #24
  call void @llvm.lifetime.end.p0(i64 8, ptr %4) #24
  call void @llvm.lifetime.end.p0(i64 8, ptr %3) #24
  ret i64 %11
}

; Function Attrs: inlinehint nounwind sspstrong willreturn memory(none) uwtable
define internal i64 @rbimpl_fix2long_by_shift(i64 noundef %0) #8 {
  %2 = alloca i64, align 8
  %3 = alloca i64, align 8
  %4 = alloca i64, align 8
  %5 = alloca i64, align 8
  store i64 %0, ptr %2, align 8, !tbaa !26
  call void @llvm.lifetime.start.p0(i64 8, ptr %3) #24
  %6 = load i64, ptr %2, align 8, !tbaa !26
  store i64 %6, ptr %3, align 8, !tbaa !26
  call void @llvm.lifetime.start.p0(i64 8, ptr %4) #24
  %7 = load i64, ptr %3, align 8, !tbaa !26
  %8 = ashr i64 %7, 1
  store i64 %8, ptr %4, align 8, !tbaa !26
  call void @llvm.lifetime.start.p0(i64 8, ptr %5) #24
  %9 = load i64, ptr %4, align 8, !tbaa !26
  store i64 %9, ptr %5, align 8, !tbaa !26
  %10 = load i64, ptr %5, align 8, !tbaa !26
  call void @llvm.lifetime.end.p0(i64 8, ptr %5) #24
  call void @llvm.lifetime.end.p0(i64 8, ptr %4) #24
  call void @llvm.lifetime.end.p0(i64 8, ptr %3) #24
  ret i64 %10
}

; Function Attrs: inlinehint nounwind sspstrong willreturn memory(none) uwtable
define internal zeroext i1 @rbimpl_right_shift_is_arithmetic_p() #8 {
  ret i1 true
}

; Function Attrs: inlinehint nounwind sspstrong willreturn memory(none) uwtable
define internal i64 @rb_fix2long(i64 noundef %0) #8 {
  %2 = alloca i64, align 8
  %3 = alloca i64, align 8
  store i64 %0, ptr %3, align 8, !tbaa !26
  %4 = call zeroext i1 @rbimpl_right_shift_is_arithmetic_p() #28
  br i1 %4, label %5, label %8

5:                                                ; preds = %1
  %6 = load i64, ptr %3, align 8, !tbaa !26
  %7 = call i64 @rbimpl_fix2long_by_shift(i64 noundef %6) #28
  store i64 %7, ptr %2, align 8
  br label %11

8:                                                ; preds = %1
  %9 = load i64, ptr %3, align 8, !tbaa !26
  %10 = call i64 @rbimpl_fix2long_by_idiv(i64 noundef %9) #28
  store i64 %10, ptr %2, align 8
  br label %11

11:                                               ; preds = %8, %5
  %12 = load i64, ptr %2, align 8
  ret i64 %12
}

; Function Attrs: inlinehint nounwind sspstrong willreturn memory(none) uwtable
define internal zeroext i1 @RB_FIXNUM_P(i64 noundef %0) #8 {
  %2 = alloca i64, align 8
  store i64 %0, ptr %2, align 8, !tbaa !26
  %3 = load i64, ptr %2, align 8, !tbaa !26
  %4 = and i64 %3, 1
  %5 = icmp ne i64 %4, 0
  ret i1 %5
}

; Function Attrs: inlinehint nounwind sspstrong uwtable
define internal i64 @rb_num2long_inline(i64 noundef %0) #4 {
  %2 = alloca i64, align 8
  %3 = alloca i64, align 8
  store i64 %0, ptr %3, align 8, !tbaa !26
  %4 = load i64, ptr %3, align 8, !tbaa !26
  %5 = call zeroext i1 @RB_FIXNUM_P(i64 noundef %4) #28
  br i1 %5, label %6, label %9

6:                                                ; preds = %1
  %7 = load i64, ptr %3, align 8, !tbaa !26
  %8 = call i64 @rb_fix2long(i64 noundef %7) #28
  store i64 %8, ptr %2, align 8
  br label %12

9:                                                ; preds = %1
  %10 = load i64, ptr %3, align 8, !tbaa !26
  %11 = call i64 @rb_num2long(i64 noundef %10)
  store i64 %11, ptr %2, align 8
  br label %12

12:                                               ; preds = %9, %6
  %13 = load i64, ptr %2, align 8
  ret i64 %13
}

; Function Attrs: nounwind sspstrong uwtable
define internal i64 @check_random_number(i64 noundef %0, ptr noundef %1) #0 {
  %3 = alloca i64, align 8
  %4 = alloca ptr, align 8
  store i64 %0, ptr %3, align 8, !tbaa !26
  store ptr %1, ptr %4, align 8, !tbaa !55
  %5 = load i64, ptr %3, align 8, !tbaa !26
  switch i64 %5, label %15 [
    i64 0, label %6
    i64 4, label %11
  ]

6:                                                ; preds = %2
  %7 = load ptr, ptr %4, align 8, !tbaa !55
  %8 = getelementptr i64, ptr %7, i64 0
  %9 = load i64, ptr %8, align 8, !tbaa !26
  %10 = call i64 @rb_num2long_inline(i64 noundef %9)
  br label %15

11:                                               ; preds = %2
  %12 = load ptr, ptr %4, align 8, !tbaa !55
  %13 = getelementptr i64, ptr %12, i64 0
  %14 = load i64, ptr %13, align 8, !tbaa !26
  call void @invalid_argument(i64 noundef %14) #27
  unreachable

15:                                               ; preds = %2, %6
  %16 = load i64, ptr %3, align 8, !tbaa !26
  ret i64 %16
}

; Function Attrs: nounwind sspstrong uwtable
define internal i64 @random_rand(i32 noundef %0, ptr noundef %1, i64 noundef %2) #0 {
  %4 = alloca i32, align 4
  %5 = alloca ptr, align 8
  %6 = alloca i64, align 8
  %7 = alloca i64, align 8
  store i32 %0, ptr %4, align 4, !tbaa !19
  store ptr %1, ptr %5, align 8, !tbaa !55
  store i64 %2, ptr %6, align 8, !tbaa !26
  call void @llvm.lifetime.start.p0(i64 8, ptr %7) #24
  %8 = load i32, ptr %4, align 4, !tbaa !19
  %9 = load ptr, ptr %5, align 8, !tbaa !55
  %10 = load i64, ptr %6, align 8, !tbaa !26
  %11 = load i64, ptr %6, align 8, !tbaa !26
  %12 = call ptr @try_get_rnd(i64 noundef %11)
  %13 = call i64 @rand_random(i32 noundef %8, ptr noundef %9, i64 noundef %10, ptr noundef %12)
  store i64 %13, ptr %7, align 8, !tbaa !26
  %14 = load i64, ptr %7, align 8, !tbaa !26
  %15 = load ptr, ptr %5, align 8, !tbaa !55
  %16 = call i64 @check_random_number(i64 noundef %14, ptr noundef %15)
  %17 = load i64, ptr %7, align 8, !tbaa !26
  call void @llvm.lifetime.end.p0(i64 8, ptr %7) #24
  ret i64 %17
}