; Function Attrs: nounwind sspstrong uwtable
define internal range(i64 5, 4) i64 @random_rand(i32 noundef %0, ptr noundef readonly captures(none) %1, i64 noundef %2) #0 {
  %4 = tail call fastcc ptr @try_get_rnd(i64 noundef %2)
  %5 = tail call fastcc i64 @rand_random(i32 noundef %0, ptr noundef %1, i64 noundef %2, ptr noundef %4)
  switch i64 %5, label %check_random_number.exit [
    i64 0, label %6
    i64 4, label %11
  ]

6:                                                ; preds = %3
  %7 = load i64, ptr %1, align 8, !tbaa !43
  %8 = and i64 %7, 1
  %.not.i.i = icmp eq i64 %8, 0
  br i1 %.not.i.i, label %9, label %check_random_number.exit

9:                                                ; preds = %6
  %10 = tail call i64 @rb_num2long(i64 noundef %7) #23
  br label %check_random_number.exit

11:                                               ; preds = %3
  %12 = load i64, ptr %1, align 8, !tbaa !43
  tail call fastcc void @invalid_argument(i64 noundef %12) #27
  unreachable

check_random_number.exit:                         ; preds = %3, %6, %9
  ret i64 %5
}